Certificate:
    Data:
        Version: 3 (0x2)
        Serial Number: 1 (0x1)
        Signature Algorithm: sha512WithRSAEncryption
        Issuer: C=GB, ST=London, L=London, O=Global Security, OU=IT Department, CN=example.com
        Validity
            Not Before: Sep 27 16:40:31 2024 GMT
            Not After : Sep 25 16:40:31 2034 GMT
        Subject: C=GB, ST=London, L=London, O=Global Security, OU=IT Department, CN=example.com
        Subject Public Key Info:
            Public Key Algorithm: rsaEncryption
                Public-Key: (2048 bit)
                Modulus:
                    00:ae:6a:18:e4:39:23:6b:96:ff:40:4f:40:83:50:
                    08:f3:2b:de:e1:bc:1f:9f:e6:c0:48:f2:6f:17:98:
                    11:6c:ed:c4:c8:30:86:b3:f1:0b:7c:79:23:45:b2:
                    02:d6:29:fd:81:9b:be:df:47:0c:07:d7:4e:bd:ca:
                    1b:fb:7a:28:24:7f:71:49:13:fb:f0:c7:3d:b9:df:
                    3d:77:ff:9f:cd:f3:72:53:08:9f:0e:24:51:4d:4a:
                    4e:1a:76:09:e0:38:00:06:a8:d8:7f:05:f7:f1:01:
                    f5:4b:3a:76:de:bf:57:48:f3:b7:45:a4:c8:7c:b6:
                    2b:dc:eb:3a:ce:48:f3:81:fe:76:2b:6b:dd:0c:6d:
                    0d:2a:da:98:8b:1c:33:e6:a7:4d:64:85:e1:0a:33:
                    be:f2:2b:c8:4f:15:47:e3:4f:9a:d0:cf:3b:0b:29:
                    29:1d:bb:e4:58:4a:48:d5:c0:62:3b:41:47:b2:fb:
                    91:d5:01:c6:8d:52:f8:ab:74:fd:e1:de:c3:c7:a8:
                    b6:16:1e:bc:62:b4:ea:79:59:1c:e2:ad:62:38:19:
                    e8:21:82:2f:64:b3:b0:df:c9:35:85:16:08:74:3a:
                    39:8d:e4:a9:fd:da:58:d1:bc:4a:36:0b:3b:39:4f:
                    9e:4a:47:4c:d2:13:21:e0:e3:1b:92:c1:67:1f:5d:
                    b9:fd
                Exponent: 65537 (0x10001)
        X509v3 extensions:
            X509v3 Subject Key Identifier: 
                AA:42:73:51:A0:4A:7B:39:14:24:A5:C6:B8:A3:CD:88:78:81:48:84
            X509v3 Authority Key Identifier: 
                BE:56:6C:F5:81:07:B8:C9:8D:D3:8E:CB:E2:E0:4B:44:2D:57:9D:62
            X509v3 Basic Constraints: critical
                CA:TRUE, pathlen:0
            X509v3 Key Usage: 
                Certificate Sign, CRL Sign
            X509v3 Subject Alternative Name: 
                <EMPTY>

            Authority Information Access: 
                CA Issuers - URI:http://my.ca/ca.html
            X509v3 CRL Distribution Points: 
                Full Name:
                  URI:http://crl1.example.com/my.crl
    Signature Algorithm: sha512WithRSAEncryption
    Signature Value:
        7f:77:e7:c5:98:d5:10:8c:4a:ea:0c:39:56:31:2d:bb:6a:89:
        fc:db:1f:07:9e:95:4f:4c:e2:24:22:e6:50:d2:36:f4:db:fd:
        cc:26:a5:c4:dd:17:76:c8:23:e8:ac:8d:4a:75:4b:5f:d6:de:
        ce:5b:93:d0:19:2f:8c:58:f5:62:29:b6:14:ce:89:00:e7:e8:
        6f:6d:e9:2d:f6:aa:ee:8c:8a:28:27:2a:3e:e3:96:35:d1:3c:
        84:ff:ae:63:1e:63:9a:af:f8:5b:cb:c2:6a:64:12:9e:cb:f4:
        eb:e7:ec:8e:65:05:6f:e2:38:d0:06:88:8a:9d:af:43:54:80:
        a3:58:ef:a2:f4:96:98:cb:26:ae:6d:ff:75:2e:8e:c3:64:97:
        af:9c:70:5c:86:fa:54:60:61:8f:9b:be:64:72:3d:3c:45:ec:
        39:46:81:8d:64:18:75:7a:cf:92:3a:32:2b:b2:bc:64:a8:be:
        a2:b3:60:32:b9:88:09:6c:65:56:6f:18:16:6a:77:b0:43:f3:
        0a:5b:15:e7:07:d2:f8:0b:5e:b3:d5:4e:d1:da:34:7f:31:61:
        2e:da:a6:0a:0f:f2:69:47:f2:f3:13:c0:c4:72:dd:85:c2:fc:
        51:f3:59:25:8f:73:46:88:cc:af:a9:7c:87:f4:c9:e5:88:62:
        12:7a:c4:84
-----BEGIN CERTIFICATE-----
MIIEPDCCAySgAwIBAgIBATANBgkqhkiG9w0BAQ0FADB3MQswCQYDVQQGEwJHQjEP
MA0GA1UECAwGTG9uZG9uMQ8wDQYDVQQHDAZMb25kb24xGDAWBgNVBAoMD0dsb2Jh
bCBTZWN1cml0eTEWMBQGA1UECwwNSVQgRGVwYXJ0bWVudDEUMBIGA1UEAwwLZXhh
bXBsZS5jb20wHhcNMjQwOTI3MTY0MDMxWhcNMzQwOTI1MTY0MDMxWjB3MQswCQYD
VQQGEwJHQjEPMA0GA1UECAwGTG9uZG9uMQ8wDQYDVQQHDAZMb25kb24xGDAWBgNV
BAoMD0dsb2JhbCBTZWN1cml0eTEWMBQGA1UECwwNSVQgRGVwYXJ0bWVudDEUMBIG
A1UEAwwLZXhhbXBsZS5jb20wggEiMA0GCSqGSIb3DQEBAQUAA4IBDwAwggEKAoIB
AQCuahjkOSNrlv9AT0CDUAjzK97hvB+f5sBI8m8XmBFs7cTIMIaz8Qt8eSNFsgLW
Kf2Bm77fRwwH1069yhv7eigkf3FJE/vwxz253z13/5/N83JTCJ8OJFFNSk4adgng
OAAGqNh/BffxAfVLOnbev1dI87dFpMh8tivc6zrOSPOB/nYra90MbQ0q2piLHDPm
p01kheEKM77yK8hPFUfjT5rQzzsLKSkdu+RYSkjVwGI7QUey+5HVAcaNUvirdP3h
3sPHqLYWHrxitOp5WRzirWI4Geghgi9ks7DfyTWFFgh0OjmN5Kn92ljRvEo2Czs5
T55KR0zSEyHg4xuSwWcfXbn9AgMBAAGjgdIwgc8wHQYDVR0OBBYEFKpCc1GgSns5
FCSlxrijzYh4gUiEMB8GA1UdIwQYMBaAFL5WbPWBB7jJjdOOy+LgS0QtV51iMBIG
A1UdEwEB/wQIMAYBAf8CAQAwCwYDVR0PBAQDAgEGMAkGA1UdEQQCMAAwMAYIKwYB
BQUHAQEEJDAiMCAGCCsGAQUFBzAChhRodHRwOi8vbXkuY2EvY2EuaHRtbDAvBgNV
HR8EKDAmMCSgIqAghh5odHRwOi8vY3JsMS5leGFtcGxlLmNvbS9teS5jcmwwDQYJ
KoZIhvcNAQENBQADggEBAH9358WY1RCMSuoMOVYxLbtqifzbHweelU9M4iQi5lDS
NvTb/cwmpcTdF3bII+isjUp1S1/W3s5bk9AZL4xY9WIpthTOiQDn6G9t6S32qu6M
iignKj7jljXRPIT/rmMeY5qv+FvLwmpkEp7L9Ovn7I5lBW/iONAGiIqdr0NUgKNY
76L0lpjLJq5t/3UujsNkl6+ccFyG+lRgYY+bvmRyPTxF7DlGgY1kGHV6z5I6Miuy
vGSovqKzYDK5iAlsZVZvGBZqd7BD8wpbFecH0vgLXrPVTtHaNH8xYS7apgoP8mlH
8vMTwMRy3YXC/FHzWSWPc0aIzK+pfIf0yeWIYhJ6xIQ=
-----END CERTIFICATE-----
